target datalayout = "e-m:e-p270:32:32-p271:32:32-p272:64:64-i64:64-i128:128-f80:128-n8:16:32:64-S128"
target triple = "x86_64-unknown-linux-gnu"

%"struct.QuantLib::detail::long_weekday_holder" = type { i32 }

; Function Attrs: mustprogress nounwind uwtable
define linkonce_odr void @_ZN8QuantLib6detail19long_weekday_holderC2ENS_7WeekdayE(ptr noundef nonnull align 4 dereferenceable(4) %this, i32 noundef %d) unnamed_addr #3 comdat align 2 {
entry:
  %this.addr = alloca ptr, align 8
  %d.addr = alloca i32, align 4
  store ptr %this, ptr %this.addr, align 8, !tbaa !3
  store i32 %d, ptr %d.addr, align 4, !tbaa !7
  %this1 = load ptr, ptr %this.addr, align 8
  %d2 = getelementptr inbounds nuw %"struct.QuantLib::detail::long_weekday_holder", ptr %this1, i32 0, i32 0
  %0 = load i32, ptr %d.addr, align 4, !tbaa !7
  store i32 %0, ptr %d2, align 4, !tbaa !9
  ret void
}

; Function Attrs: mustprogress uwtable
define i32 @_ZN8QuantLib2io12long_weekdayENS_7WeekdayE(i32 noundef %d) #0 {
entry:
  %retval = alloca %"struct.QuantLib::detail::long_weekday_holder", align 4
  %d.addr = alloca i32, align 4
  store i32 %d, ptr %d.addr, align 4, !tbaa !7
  %0 = load i32, ptr %d.addr, align 4, !tbaa !7
  call void @_ZN8QuantLib6detail19long_weekday_holderC2ENS_7WeekdayE(ptr noundef nonnull align 4 dereferenceable(4) %retval, i32 noundef %0)
  %coerce.dive = getelementptr inbounds nuw %"struct.QuantLib::detail::long_weekday_holder", ptr %retval, i32 0, i32 0
  %1 = load i32, ptr %coerce.dive, align 4
  ret i32 %1
}

; Function Attrs: mustprogress uwtable
define noundef nonnull align 8 dereferenceable(8) ptr @_ZN8QuantLiblsERSoRKNS_7WeekdayE(ptr noundef nonnull align 8 dereferenceable(8) %out, ptr noundef nonnull align 4 dereferenceable(4) %w) #0 {
entry:
  %out.addr = alloca ptr, align 8
  %w.addr = alloca ptr, align 8
  %ref.tmp = alloca %"struct.QuantLib::detail::long_weekday_holder", align 4
  store ptr %out, ptr %out.addr, align 8, !tbaa !3
  store ptr %w, ptr %w.addr, align 8, !tbaa !3
  %0 = load ptr, ptr %out.addr, align 8, !tbaa !3
  call void @llvm.lifetime.start.p0(i64 4, ptr %ref.tmp) #12
  %1 = load ptr, ptr %w.addr, align 8, !tbaa !3
  %2 = load i32, ptr %1, align 4, !tbaa !7
  %call = call i32 @_ZN8QuantLib2io12long_weekdayENS_7WeekdayE(i32 noundef %2)
  %coerce.dive = getelementptr inbounds nuw %"struct.QuantLib::detail::long_weekday_holder", ptr %ref.tmp, i32 0, i32 0
  store i32 %call, ptr %coerce.dive, align 4
  %call1 = call noundef nonnull align 8 dereferenceable(8) ptr @_ZN8QuantLib6detaillsERSoRKNS0_19long_weekday_holderE(ptr noundef nonnull align 8 dereferenceable(8) %0, ptr noundef nonnull align 4 dereferenceable(4) %ref.tmp)
  call void @llvm.lifetime.end.p0(i64 4, ptr %ref.tmp) #12
  ret ptr %call1
}