; Function Attrs: mustprogress uwtable
define noundef nonnull align 8 dereferenceable(8) ptr @_ZN8QuantLiblsERSoRKNS_7WeekdayE(ptr noundef nonnull returned align 8 dereferenceable(8) %out, ptr nocapture noundef nonnull readonly align 4 dereferenceable(4) %w) local_unnamed_addr #0 {
entry:
  %ref.tmp = alloca %"struct.QuantLib::detail::long_weekday_holder", align 4
  call void @llvm.lifetime.start.p0(i64 4, ptr nonnull %ref.tmp) #15
  %0 = load i32, ptr %w, align 4, !tbaa !3
  store i32 %0, ptr %ref.tmp, align 4
  %call1 = call noundef nonnull align 8 dereferenceable(8) ptr @_ZN8QuantLib6detaillsERSoRKNS0_19long_weekday_holderE(ptr noundef nonnull align 8 dereferenceable(8) %out, ptr noundef nonnull align 4 dereferenceable(4) %ref.tmp)
  call void @llvm.lifetime.end.p0(i64 4, ptr nonnull %ref.tmp) #15
  ret ptr %out
}